target datalayout = "e-m:e-p270:32:32-p271:32:32-p272:64:64-i64:64-i128:128-f80:128-n8:16:32:64-S128"
target triple = "x86_64-pc-linux-gnu"

%class.btVector3 = type { [4 x float] }
%class.btDeformableContactConstraint = type { ptr, i8, ptr, %class.btVector3 }
%class.btDeformableRigidContactConstraint = type { %class.btDeformableContactConstraint, %class.btVector3, %class.btVector3, float, float, i8, ptr }

; Function Attrs: mustprogress nounwind uwtable
define linkonce_odr dso_local void @_ZN29btDeformableContactConstraintD2Ev(ptr noundef nonnull align 8 dereferenceable(40) %0) unnamed_addr #1 comdat align 2 {
  %2 = alloca ptr, align 8
  store ptr %0, ptr %2, align 8, !tbaa !25
  ret void
}

; Function Attrs: inlinehint mustprogress nounwind uwtable
define linkonce_odr dso_local void @_ZN9btVector3C2Ev(ptr noundef nonnull align 4 dereferenceable(16) %0) unnamed_addr #5 comdat align 2 {
  %2 = alloca ptr, align 8
  store ptr %0, ptr %2, align 8, !tbaa !27
  ret void
}

; Function Attrs: mustprogress nounwind uwtable
define linkonce_odr dso_local void @_ZN29btDeformableContactConstraintC2ERKS_(ptr noundef nonnull align 8 dereferenceable(40) %0, ptr noundef nonnull align 8 dereferenceable(40) %1) unnamed_addr #1 comdat align 2 {
  %3 = alloca ptr, align 8
  %4 = alloca ptr, align 8
  store ptr %0, ptr %3, align 8, !tbaa !25
  store ptr %1, ptr %4, align 8, !tbaa !25
  %5 = load ptr, ptr %3, align 8
  store ptr getelementptr inbounds inrange(-16, 64) ({ [10 x ptr] }, ptr @_ZTV29btDeformableContactConstraint, i32 0, i32 0, i32 2), ptr %5, align 8, !tbaa !18
  %6 = getelementptr inbounds nuw %class.btDeformableContactConstraint, ptr %5, i32 0, i32 1
  %7 = load ptr, ptr %4, align 8, !tbaa !25
  %8 = getelementptr inbounds nuw %class.btDeformableContactConstraint, ptr %7, i32 0, i32 1
  %9 = load i8, ptr %8, align 8, !tbaa !29, !range !32, !noundef !33
  %10 = trunc i8 %9 to i1
  %11 = zext i1 %10 to i8
  store i8 %11, ptr %6, align 8, !tbaa !29
  %12 = getelementptr inbounds nuw %class.btDeformableContactConstraint, ptr %5, i32 0, i32 2
  %13 = load ptr, ptr %4, align 8, !tbaa !25
  %14 = getelementptr inbounds nuw %class.btDeformableContactConstraint, ptr %13, i32 0, i32 2
  %15 = load ptr, ptr %14, align 8, !tbaa !30
  store ptr %15, ptr %12, align 8, !tbaa !30
  %16 = getelementptr inbounds nuw %class.btDeformableContactConstraint, ptr %5, i32 0, i32 3
  %17 = load ptr, ptr %4, align 8, !tbaa !25
  %18 = getelementptr inbounds nuw %class.btDeformableContactConstraint, ptr %17, i32 0, i32 3
  call void @llvm.memcpy.p0.p0.i64(ptr align 8 %16, ptr align 8 %18, i64 16, i1 false), !tbaa.struct !31
  ret void
}

; Function Attrs: mustprogress uwtable
define dso_local void @_ZN34btDeformableRigidContactConstraintC2ERKS_(ptr noundef nonnull align 8 dereferenceable(96) %0, ptr noundef nonnull align 8 dereferenceable(96) %1) unnamed_addr #2 align 2 personality ptr @__gxx_personality_v0 {
  %3 = alloca ptr, align 8
  %4 = alloca ptr, align 8
  %5 = alloca ptr, align 8
  %6 = alloca i32, align 4
  store ptr %0, ptr %3, align 8, !tbaa !98
  store ptr %1, ptr %4, align 8, !tbaa !98
  %7 = load ptr, ptr %3, align 8
  %8 = load ptr, ptr %4, align 8, !tbaa !98
  call void @_ZN29btDeformableContactConstraintC2ERKS_(ptr noundef nonnull align 8 dereferenceable(40) %7, ptr noundef nonnull align 8 dereferenceable(40) %8)
  store ptr getelementptr inbounds inrange(-16, 88) ({ [13 x ptr] }, ptr @_ZTV34btDeformableRigidContactConstraint, i32 0, i32 0, i32 2), ptr %7, align 8, !tbaa !18
  %9 = getelementptr inbounds nuw %class.btDeformableRigidContactConstraint, ptr %7, i32 0, i32 1
  invoke void @_ZN9btVector3C2Ev(ptr noundef nonnull align 4 dereferenceable(16) %9)
          to label %10 unwind label %37

10:                                               ; preds = %2
  %11 = getelementptr inbounds nuw %class.btDeformableRigidContactConstraint, ptr %7, i32 0, i32 2
  invoke void @_ZN9btVector3C2Ev(ptr noundef nonnull align 4 dereferenceable(16) %11)
          to label %12 unwind label %37

12:                                               ; preds = %10
  %13 = getelementptr inbounds nuw %class.btDeformableRigidContactConstraint, ptr %7, i32 0, i32 3
  %14 = load ptr, ptr %4, align 8, !tbaa !98
  %15 = getelementptr inbounds nuw %class.btDeformableRigidContactConstraint, ptr %14, i32 0, i32 3
  %16 = load float, ptr %15, align 8, !tbaa !105
  store float %16, ptr %13, align 8, !tbaa !105
  %17 = getelementptr inbounds nuw %class.btDeformableRigidContactConstraint, ptr %7, i32 0, i32 4
  %18 = load ptr, ptr %4, align 8, !tbaa !98
  %19 = getelementptr inbounds nuw %class.btDeformableRigidContactConstraint, ptr %18, i32 0, i32 4
  %20 = load float, ptr %19, align 4, !tbaa !106
  store float %20, ptr %17, align 4, !tbaa !106
  %21 = getelementptr inbounds nuw %class.btDeformableRigidContactConstraint, ptr %7, i32 0, i32 5
  %22 = load ptr, ptr %4, align 8, !tbaa !98
  %23 = getelementptr inbounds nuw %class.btDeformableRigidContactConstraint, ptr %22, i32 0, i32 5
  %24 = load i8, ptr %23, align 8, !tbaa !107, !range !32, !noundef !33
  %25 = trunc i8 %24 to i1
  %26 = zext i1 %25 to i8
  store i8 %26, ptr %21, align 8, !tbaa !107
  %27 = getelementptr inbounds nuw %class.btDeformableRigidContactConstraint, ptr %7, i32 0, i32 6
  %28 = load ptr, ptr %4, align 8, !tbaa !98
  %29 = getelementptr inbounds nuw %class.btDeformableRigidContactConstraint, ptr %28, i32 0, i32 6
  %30 = load ptr, ptr %29, align 8, !tbaa !102
  store ptr %30, ptr %27, align 8, !tbaa !102
  %31 = load ptr, ptr %4, align 8, !tbaa !98
  %32 = getelementptr inbounds nuw %class.btDeformableRigidContactConstraint, ptr %31, i32 0, i32 1
  %33 = getelementptr inbounds nuw %class.btDeformableRigidContactConstraint, ptr %7, i32 0, i32 1
  call void @llvm.memcpy.p0.p0.i64(ptr align 8 %33, ptr align 8 %32, i64 16, i1 false), !tbaa.struct !31
  %34 = load ptr, ptr %4, align 8, !tbaa !98
  %35 = getelementptr inbounds nuw %class.btDeformableRigidContactConstraint, ptr %34, i32 0, i32 2
  %36 = getelementptr inbounds nuw %class.btDeformableRigidContactConstraint, ptr %7, i32 0, i32 2
  call void @llvm.memcpy.p0.p0.i64(ptr align 8 %36, ptr align 8 %35, i64 16, i1 false), !tbaa.struct !31
  ret void

37:                                               ; preds = %10, %2
  %38 = landingpad { ptr, i32 }
          cleanup
  %39 = extractvalue { ptr, i32 } %38, 0
  store ptr %39, ptr %5, align 8
  %40 = extractvalue { ptr, i32 } %38, 1
  store i32 %40, ptr %6, align 4
  call void @_ZN29btDeformableContactConstraintD2Ev(ptr noundef nonnull align 8 dereferenceable(40) %7) #13
  br label %41

41:                                               ; preds = %37
  %42 = load ptr, ptr %5, align 8
  %43 = load i32, ptr %6, align 4
  %44 = insertvalue { ptr, i32 } poison, ptr %42, 0
  %45 = insertvalue { ptr, i32 } %44, i32 %43, 1
  resume { ptr, i32 } %45
}