; Function Attrs: mustprogress nofree norecurse nosync nounwind willreturn memory(argmem: readwrite) uwtable
define dso_local void @_ZN34btDeformableRigidContactConstraintC2ERKS_(ptr noundef nonnull writeonly align 8 captures(none) dereferenceable(96) initializes((0, 9), (16, 81), (88, 96)) %0, ptr noundef nonnull readonly align 8 captures(none) dereferenceable(96) %1) unnamed_addr #0 align 2 personality ptr @__gxx_personality_v0 {
  store ptr getelementptr inbounds nuw inrange(-16, 64) (i8, ptr @_ZTV29btDeformableContactConstraint, i64 16), ptr %0, align 8, !tbaa !4
  %3 = getelementptr inbounds nuw i8, ptr %0, i64 8
  %4 = getelementptr inbounds nuw i8, ptr %1, i64 8
  %5 = load i8, ptr %4, align 8, !tbaa !7, !range !20, !noundef !21
  store i8 %5, ptr %3, align 8, !tbaa !7
  %6 = getelementptr inbounds nuw i8, ptr %0, i64 16
  %7 = getelementptr inbounds nuw i8, ptr %1, i64 16
  %8 = load ptr, ptr %7, align 8, !tbaa !14
  store ptr %8, ptr %6, align 8, !tbaa !14
  %9 = getelementptr inbounds nuw i8, ptr %0, i64 24
  %10 = getelementptr inbounds nuw i8, ptr %1, i64 24
  tail call void @llvm.memcpy.p0.p0.i64(ptr noundef nonnull align 8 dereferenceable(16) %9, ptr noundef nonnull align 8 dereferenceable(16) %10, i64 16, i1 false), !tbaa.struct !15
  store ptr getelementptr inbounds nuw inrange(-16, 88) (i8, ptr @_ZTV34btDeformableRigidContactConstraint, i64 16), ptr %0, align 8, !tbaa !4
  %11 = getelementptr inbounds nuw i8, ptr %0, i64 40
  %12 = getelementptr inbounds nuw i8, ptr %0, i64 56
  %13 = getelementptr inbounds nuw i8, ptr %0, i64 72
  %14 = getelementptr inbounds nuw i8, ptr %1, i64 72
  %15 = load float, ptr %14, align 8, !tbaa !81
  store float %15, ptr %13, align 8, !tbaa !81
  %16 = getelementptr inbounds nuw i8, ptr %0, i64 76
  %17 = getelementptr inbounds nuw i8, ptr %1, i64 76
  %18 = load float, ptr %17, align 4, !tbaa !82
  store float %18, ptr %16, align 4, !tbaa !82
  %19 = getelementptr inbounds nuw i8, ptr %0, i64 80
  %20 = getelementptr inbounds nuw i8, ptr %1, i64 80
  %21 = load i8, ptr %20, align 8, !tbaa !83, !range !20, !noundef !21
  store i8 %21, ptr %19, align 8, !tbaa !83
  %22 = getelementptr inbounds nuw i8, ptr %0, i64 88
  %23 = getelementptr inbounds nuw i8, ptr %1, i64 88
  %24 = load ptr, ptr %23, align 8, !tbaa !77
  store ptr %24, ptr %22, align 8, !tbaa !77
  %25 = getelementptr inbounds nuw i8, ptr %1, i64 40
  tail call void @llvm.memcpy.p0.p0.i64(ptr noundef nonnull align 8 dereferenceable(16) %11, ptr noundef nonnull align 8 dereferenceable(16) %25, i64 16, i1 false), !tbaa.struct !15
  %26 = getelementptr inbounds nuw i8, ptr %1, i64 56
  tail call void @llvm.memcpy.p0.p0.i64(ptr noundef nonnull align 8 dereferenceable(16) %12, ptr noundef nonnull align 8 dereferenceable(16) %26, i64 16, i1 false), !tbaa.struct !15
  ret void
}